ccopy_reg
_reconstructor
p0
(crecurrent_network
NetworkInput
p1
c__builtin__
object
p2
Ntp3
Rp4
(dp5
S'word_dimension'
p6
I206
sS'phrase_batch'
p7
NsS'phrase_count'
p8
I1
sS'batch_size'
p9
I2
sS'epoch_size'
p10
NsS'phrase_dimension'
p11
I5
sS'num_epochs'
p12
I100
sS'caption_batch'
p13
Nsb.