(lp0
I22
aI205
aI126
aI40
aI205
aI22
aI82
aI100
aI22
aI205
aI22
aI73
aI100
aI22
aI193
aI88
aI86
aI100
aI175
aI70
aI175
aI205
aI104
aI205
aI100
aI22
aI88
aI205
aI70
aI205
aI205
aI127
aI22
aI205
aI205
aI51
aI201
aI198
aI205
aI205
aI22
aI184
aI127
aI175
aI183
aI190
aI83
aI100
aI22
aI70
a.