ccopy_reg
_reconstructor
p0
(crecurrent_network
NetworkParameters
p1
c__builtin__
object
p2
Ntp3
Rp4
(dp5
S'learning_rate'
p6
F0.001
sS'num_layers'
p7
I1
sS'init_scale'
p8
F0.1
sS'data_type'
p9
g0
(ctensorflow.python.framework.dtypes
DType
p10
g2
Ntp11
Rp12
(dp13
S'_type_enum'
p14
I1
sbsS'layer_size'
p15
I64
sb.